; ModuleID = '2/984.c'
source_filename = "2/984.c"
target datalayout = "e-m:e-p270:32:32-p271:32:32-p272:64:64-i64:64-f80:128-n8:16:32:64-S128"
target triple = "x86_64-pc-linux-gnu"

%struct.bo = type { [10 x i8], [100 x i8] }

@.str = private unnamed_addr constant [3 x i8] c"%d\00", align 1
@.str.1 = private unnamed_addr constant [5 x i8] c"%s%s\00", align 1
@.str.2 = private unnamed_addr constant [4 x i8] c"%c\0A\00", align 1
@.str.3 = private unnamed_addr constant [4 x i8] c"%d\0A\00", align 1
@.str.4 = private unnamed_addr constant [4 x i8] c"%s\0A\00", align 1

; Function Attrs: noinline nounwind uwtable
define dso_local i32 @main() #0 {
  %1 = alloca i32, align 4
  %2 = alloca i32, align 4
  %3 = alloca i32, align 4
  %4 = alloca i32, align 4
  %5 = alloca i32, align 4
  %6 = alloca i8, align 1
  %7 = alloca %struct.bo*, align 8
  %8 = alloca [26 x i32], align 16
  store i32 0, i32* %1, align 4
  %9 = getelementptr inbounds [26 x i32], [26 x i32]* %8, i64 0, i64 0
  %10 = bitcast i32* %9 to i8*
  call void @llvm.memset.p0i8.i64(i8* align 16 %10, i8 0, i64 104, i1 false)
  %11 = call i32 (i8*, ...) @__isoc99_scanf(i8* getelementptr inbounds ([3 x i8], [3 x i8]* @.str, i64 0, i64 0), i32* %2)
  %12 = load i32, i32* %2, align 4
  %13 = sext i32 %12 to i64
  %14 = mul i64 110, %13
  %15 = call noalias i8* @malloc(i64 %14) #5
  %16 = bitcast i8* %15 to %struct.bo*
  store %struct.bo* %16, %struct.bo** %7, align 8
  store i32 0, i32* %3, align 4
  br label %17

17:                                               ; preds = %66, %0
  %18 = load i32, i32* %3, align 4
  %19 = load i32, i32* %2, align 4
  %20 = icmp slt i32 %18, %19
  br i1 %20, label %21, label %69

21:                                               ; preds = %17
  %22 = load %struct.bo*, %struct.bo** %7, align 8
  %23 = load i32, i32* %3, align 4
  %24 = sext i32 %23 to i64
  %25 = getelementptr inbounds %struct.bo, %struct.bo* %22, i64 %24
  %26 = getelementptr inbounds %struct.bo, %struct.bo* %25, i32 0, i32 0
  %27 = getelementptr inbounds [10 x i8], [10 x i8]* %26, i64 0, i64 0
  %28 = load %struct.bo*, %struct.bo** %7, align 8
  %29 = load i32, i32* %3, align 4
  %30 = sext i32 %29 to i64
  %31 = getelementptr inbounds %struct.bo, %struct.bo* %28, i64 %30
  %32 = getelementptr inbounds %struct.bo, %struct.bo* %31, i32 0, i32 1
  %33 = getelementptr inbounds [100 x i8], [100 x i8]* %32, i64 0, i64 0
  %34 = call i32 (i8*, ...) @__isoc99_scanf(i8* getelementptr inbounds ([5 x i8], [5 x i8]* @.str.1, i64 0, i64 0), i8* %27, i8* %33)
  store i32 0, i32* %4, align 4
  br label %35

35:                                               ; preds = %62, %21
  %36 = load %struct.bo*, %struct.bo** %7, align 8
  %37 = load i32, i32* %3, align 4
  %38 = sext i32 %37 to i64
  %39 = getelementptr inbounds %struct.bo, %struct.bo* %36, i64 %38
  %40 = getelementptr inbounds %struct.bo, %struct.bo* %39, i32 0, i32 1
  %41 = load i32, i32* %4, align 4
  %42 = sext i32 %41 to i64
  %43 = getelementptr inbounds [100 x i8], [100 x i8]* %40, i64 0, i64 %42
  %44 = load i8, i8* %43, align 1
  %45 = icmp ne i8 %44, 0
  br i1 %45, label %46, label %65

46:                                               ; preds = %35
  %47 = load %struct.bo*, %struct.bo** %7, align 8
  %48 = load i32, i32* %3, align 4
  %49 = sext i32 %48 to i64
  %50 = getelementptr inbounds %struct.bo, %struct.bo* %47, i64 %49
  %51 = getelementptr inbounds %struct.bo, %struct.bo* %50, i32 0, i32 1
  %52 = load i32, i32* %4, align 4
  %53 = sext i32 %52 to i64
  %54 = getelementptr inbounds [100 x i8], [100 x i8]* %51, i64 0, i64 %53
  %55 = load i8, i8* %54, align 1
  %56 = sext i8 %55 to i32
  %57 = sub nsw i32 %56, 65
  %58 = sext i32 %57 to i64
  %59 = getelementptr inbounds [26 x i32], [26 x i32]* %8, i64 0, i64 %58
  %60 = load i32, i32* %59, align 4
  %61 = add nsw i32 %60, 1
  store i32 %61, i32* %59, align 4
  br label %62

62:                                               ; preds = %46
  %63 = load i32, i32* %4, align 4
  %64 = add nsw i32 %63, 1
  store i32 %64, i32* %4, align 4
  br label %35

65:                                               ; preds = %35
  br label %66

66:                                               ; preds = %65
  %67 = load i32, i32* %3, align 4
  %68 = add nsw i32 %67, 1
  store i32 %68, i32* %3, align 4
  br label %17

69:                                               ; preds = %17
  store i32 0, i32* %5, align 4
  store i32 0, i32* %3, align 4
  br label %70

70:                                               ; preds = %89, %69
  %71 = load i32, i32* %3, align 4
  %72 = icmp slt i32 %71, 26
  br i1 %72, label %73, label %92

73:                                               ; preds = %70
  %74 = load i32, i32* %5, align 4
  %75 = load i32, i32* %3, align 4
  %76 = sext i32 %75 to i64
  %77 = getelementptr inbounds [26 x i32], [26 x i32]* %8, i64 0, i64 %76
  %78 = load i32, i32* %77, align 4
  %79 = icmp slt i32 %74, %78
  br i1 %79, label %80, label %88

80:                                               ; preds = %73
  %81 = load i32, i32* %3, align 4
  %82 = sext i32 %81 to i64
  %83 = getelementptr inbounds [26 x i32], [26 x i32]* %8, i64 0, i64 %82
  %84 = load i32, i32* %83, align 4
  store i32 %84, i32* %5, align 4
  %85 = load i32, i32* %3, align 4
  %86 = add nsw i32 %85, 65
  %87 = trunc i32 %86 to i8
  store i8 %87, i8* %6, align 1
  br label %88

88:                                               ; preds = %80, %73
  br label %89

89:                                               ; preds = %88
  %90 = load i32, i32* %3, align 4
  %91 = add nsw i32 %90, 1
  store i32 %91, i32* %3, align 4
  br label %70

92:                                               ; preds = %70
  %93 = load i8, i8* %6, align 1
  %94 = sext i8 %93 to i32
  %95 = call i32 (i8*, ...) @printf(i8* getelementptr inbounds ([4 x i8], [4 x i8]* @.str.2, i64 0, i64 0), i32 %94)
  %96 = load i32, i32* %5, align 4
  %97 = call i32 (i8*, ...) @printf(i8* getelementptr inbounds ([4 x i8], [4 x i8]* @.str.3, i64 0, i64 0), i32 %96)
  store i32 0, i32* %3, align 4
  br label %98

98:                                               ; preds = %122, %92
  %99 = load i32, i32* %3, align 4
  %100 = load i32, i32* %2, align 4
  %101 = icmp slt i32 %99, %100
  br i1 %101, label %102, label %125

102:                                              ; preds = %98
  %103 = load %struct.bo*, %struct.bo** %7, align 8
  %104 = load i32, i32* %3, align 4
  %105 = sext i32 %104 to i64
  %106 = getelementptr inbounds %struct.bo, %struct.bo* %103, i64 %105
  %107 = getelementptr inbounds %struct.bo, %struct.bo* %106, i32 0, i32 1
  %108 = getelementptr inbounds [100 x i8], [100 x i8]* %107, i64 0, i64 0
  %109 = load i8, i8* %6, align 1
  %110 = sext i8 %109 to i32
  %111 = call i8* @strchr(i8* %108, i32 %110) #6
  %112 = icmp ne i8* %111, null
  br i1 %112, label %113, label %121

113:                                              ; preds = %102
  %114 = load %struct.bo*, %struct.bo** %7, align 8
  %115 = load i32, i32* %3, align 4
  %116 = sext i32 %115 to i64
  %117 = getelementptr inbounds %struct.bo, %struct.bo* %114, i64 %116
  %118 = getelementptr inbounds %struct.bo, %struct.bo* %117, i32 0, i32 0
  %119 = getelementptr inbounds [10 x i8], [10 x i8]* %118, i64 0, i64 0
  %120 = call i32 (i8*, ...) @printf(i8* getelementptr inbounds ([4 x i8], [4 x i8]* @.str.4, i64 0, i64 0), i8* %119)
  br label %121

121:                                              ; preds = %113, %102
  br label %122

122:                                              ; preds = %121
  %123 = load i32, i32* %3, align 4
  %124 = add nsw i32 %123, 1
  store i32 %124, i32* %3, align 4
  br label %98

125:                                              ; preds = %98
  ret i32 0
}

; Function Attrs: argmemonly nounwind willreturn
declare void @llvm.memset.p0i8.i64(i8* nocapture writeonly, i8, i64, i1 immarg) #1

declare dso_local i32 @__isoc99_scanf(i8*, ...) #2

; Function Attrs: nounwind
declare dso_local noalias i8* @malloc(i64) #3

declare dso_local i32 @printf(i8*, ...) #2

; Function Attrs: nounwind readonly
declare dso_local i8* @strchr(i8*, i32) #4


!llvm.module.flags = !{!0}
!llvm.ident = !{!1}

!0 = !{i32 1, !"wchar_size", i32 4}
!1 = !{!"clang version 10.0.0-4ubuntu1 "}
